target datalayout = "e-m:e-p270:32:32-p271:32:32-p272:64:64-i64:64-i128:128-f80:128-n8:16:32:64-S128"
target triple = "x86_64-pc-linux-gnu"

%struct.commit_graph_data = type { i32, i64 }
%struct.object_id = type { [32 x i8], i32 }
%struct.commit = type { %struct.object, i64, ptr, ptr, i32 }
%struct.object = type { i32, %struct.object_id }
%struct.packed_commit_list = type { ptr, i64, i64 }
%struct.write_commit_graph_context = type { ptr, ptr, ptr, %struct.oid_array, %struct.packed_commit_list, i32, i32, i64, ptr, i32, i64, ptr, i32, i32, ptr, ptr, ptr, i32, ptr, i8, ptr, ptr, i64, ptr, i32, i32, i32, i32, i32 }
%struct.oid_array = type { ptr, i64, i64, i32 }

; Function Attrs: inlinehint nounwind uwtable
define internal i32 @default_swab32(i32 noundef %0) #5 {
  %2 = alloca i32, align 4
  store i32 %0, ptr %2, align 4, !tbaa !4
  %3 = load i32, ptr %2, align 4, !tbaa !4
  %4 = and i32 %3, -16777216
  %5 = lshr i32 %4, 24
  %6 = load i32, ptr %2, align 4, !tbaa !4
  %7 = and i32 %6, 16711680
  %8 = lshr i32 %7, 8
  %9 = or i32 %5, %8
  %10 = load i32, ptr %2, align 4, !tbaa !4
  %11 = and i32 %10, 65280
  %12 = shl i32 %11, 8
  %13 = or i32 %9, %12
  %14 = load i32, ptr %2, align 4, !tbaa !4
  %15 = and i32 %14, 255
  %16 = shl i32 %15, 24
  %17 = or i32 %13, %16
  ret i32 %17
}

; Function Attrs: inlinehint nounwind uwtable
define internal i32 @git_bswap32(i32 noundef %0) #5 {
  %2 = alloca i32, align 4
  %3 = alloca i32, align 4
  store i32 %0, ptr %2, align 4, !tbaa !4
  call void @llvm.lifetime.start.p0(i64 4, ptr %3) #12
  %4 = load i32, ptr %2, align 4, !tbaa !4
  %5 = call i1 @llvm.is.constant.i32(i32 %4)
  br i1 %5, label %6, label %9

6:                                                ; preds = %1
  %7 = load i32, ptr %2, align 4, !tbaa !4
  %8 = call i32 @default_swab32(i32 noundef %7)
  store i32 %8, ptr %3, align 4, !tbaa !4
  br label %12

9:                                                ; preds = %1
  %10 = load i32, ptr %2, align 4, !tbaa !4
  %11 = call i32 asm "bswap $0", "=r,0,~{dirflag},~{fpsr},~{flags}"(i32 %10) #16, !srcloc !315
  store i32 %11, ptr %3, align 4, !tbaa !4
  br label %12

12:                                               ; preds = %9, %6
  %13 = load i32, ptr %3, align 4, !tbaa !4
  call void @llvm.lifetime.end.p0(i64 4, ptr %3) #12
  ret i32 %13
}

; Function Attrs: inlinehint nounwind uwtable
define internal void @hashwrite_be32(ptr noundef %0, i32 noundef %1) #5 {
  %3 = alloca ptr, align 8
  %4 = alloca i32, align 4
  store ptr %0, ptr %3, align 8, !tbaa !282
  store i32 %1, ptr %4, align 4, !tbaa !4
  %5 = load i32, ptr %4, align 4, !tbaa !4
  %6 = call i32 @git_bswap32(i32 noundef %5)
  store i32 %6, ptr %4, align 4, !tbaa !4
  %7 = load ptr, ptr %3, align 8, !tbaa !282
  call void @hashwrite(ptr noundef %7, ptr noundef %4, i32 noundef 4)
  ret void
}

; Function Attrs: nounwind uwtable
define internal i32 @write_graph_chunk_generation_data_overflow(ptr noundef %0, ptr noundef %1) #0 {
  %3 = alloca ptr, align 8
  %4 = alloca ptr, align 8
  %5 = alloca ptr, align 8
  %6 = alloca i32, align 4
  %7 = alloca ptr, align 8
  %8 = alloca i64, align 8
  store ptr %0, ptr %3, align 8, !tbaa !282
  store ptr %1, ptr %4, align 8, !tbaa !78
  call void @llvm.lifetime.start.p0(i64 8, ptr %5) #12
  %9 = load ptr, ptr %4, align 8, !tbaa !78
  store ptr %9, ptr %5, align 8, !tbaa !197
  call void @llvm.lifetime.start.p0(i64 4, ptr %6) #12
  store i32 0, ptr %6, align 4, !tbaa !4
  br label %10

10:                                               ; preds = %53, %2
  %11 = load i32, ptr %6, align 4, !tbaa !4
  %12 = sext i32 %11 to i64
  %13 = load ptr, ptr %5, align 8, !tbaa !197
  %14 = getelementptr inbounds nuw %struct.write_commit_graph_context, ptr %13, i32 0, i32 4
  %15 = getelementptr inbounds nuw %struct.packed_commit_list, ptr %14, i32 0, i32 1
  %16 = load i64, ptr %15, align 8, !tbaa !218
  %17 = icmp ult i64 %12, %16
  br i1 %17, label %18, label %56

18:                                               ; preds = %10
  call void @llvm.lifetime.start.p0(i64 8, ptr %7) #12
  %19 = load ptr, ptr %5, align 8, !tbaa !197
  %20 = getelementptr inbounds nuw %struct.write_commit_graph_context, ptr %19, i32 0, i32 4
  %21 = getelementptr inbounds nuw %struct.packed_commit_list, ptr %20, i32 0, i32 0
  %22 = load ptr, ptr %21, align 8, !tbaa !222
  %23 = load i32, ptr %6, align 4, !tbaa !4
  %24 = sext i32 %23 to i64
  %25 = getelementptr inbounds ptr, ptr %22, i64 %24
  %26 = load ptr, ptr %25, align 8, !tbaa !52
  store ptr %26, ptr %7, align 8, !tbaa !52
  call void @llvm.lifetime.start.p0(i64 8, ptr %8) #12
  %27 = load ptr, ptr %7, align 8, !tbaa !52
  %28 = call ptr @commit_graph_data_at(ptr noundef %27)
  %29 = getelementptr inbounds nuw %struct.commit_graph_data, ptr %28, i32 0, i32 1
  %30 = load i64, ptr %29, align 8, !tbaa !60
  %31 = load ptr, ptr %7, align 8, !tbaa !52
  %32 = getelementptr inbounds nuw %struct.commit, ptr %31, i32 0, i32 1
  %33 = load i64, ptr %32, align 8, !tbaa !160
  %34 = sub i64 %30, %33
  store i64 %34, ptr %8, align 8, !tbaa !73
  %35 = load ptr, ptr %5, align 8, !tbaa !197
  %36 = getelementptr inbounds nuw %struct.write_commit_graph_context, ptr %35, i32 0, i32 8
  %37 = load ptr, ptr %36, align 8, !tbaa !242
  %38 = load ptr, ptr %5, align 8, !tbaa !197
  %39 = getelementptr inbounds nuw %struct.write_commit_graph_context, ptr %38, i32 0, i32 10
  %40 = load i64, ptr %39, align 8, !tbaa !365
  %41 = add i64 %40, 1
  store i64 %41, ptr %39, align 8, !tbaa !365
  call void @display_progress(ptr noundef %37, i64 noundef %41)
  %42 = load i64, ptr %8, align 8, !tbaa !73
  %43 = icmp ugt i64 %42, 2147483647
  br i1 %43, label %44, label %52

44:                                               ; preds = %18
  %45 = load ptr, ptr %3, align 8, !tbaa !282
  %46 = load i64, ptr %8, align 8, !tbaa !73
  %47 = lshr i64 %46, 32
  %48 = trunc i64 %47 to i32
  call void @hashwrite_be32(ptr noundef %45, i32 noundef %48)
  %49 = load ptr, ptr %3, align 8, !tbaa !282
  %50 = load i64, ptr %8, align 8, !tbaa !73
  %51 = trunc i64 %50 to i32
  call void @hashwrite_be32(ptr noundef %49, i32 noundef %51)
  br label %52

52:                                               ; preds = %44, %18
  call void @llvm.lifetime.end.p0(i64 8, ptr %8) #12
  call void @llvm.lifetime.end.p0(i64 8, ptr %7) #12
  br label %53

53:                                               ; preds = %52
  %54 = load i32, ptr %6, align 4, !tbaa !4
  %55 = add nsw i32 %54, 1
  store i32 %55, ptr %6, align 4, !tbaa !4
  br label %10, !llvm.loop !372

56:                                               ; preds = %10
  call void @llvm.lifetime.end.p0(i64 4, ptr %6) #12
  call void @llvm.lifetime.end.p0(i64 8, ptr %5) #12
  ret i32 0
}