; Function Attrs: nounwind uwtable
define internal noundef i32 @write_graph_chunk_generation_data_overflow(ptr noundef %0, ptr noundef captures(none) %1) #0 {
  %3 = alloca i32, align 4
  %4 = alloca i32, align 4
  %5 = getelementptr inbounds nuw i8, ptr %1, i64 64
  %6 = load i64, ptr %5, align 8, !tbaa !222
  %.not = icmp eq i64 %6, 0
  br i1 %.not, label %._crit_edge, label %.lr.ph

.lr.ph:                                           ; preds = %2
  %7 = getelementptr inbounds nuw i8, ptr %1, i64 56
  %8 = getelementptr inbounds nuw i8, ptr %1, i64 96
  %9 = getelementptr inbounds nuw i8, ptr %1, i64 112
  br label %10

10:                                               ; preds = %.lr.ph, %30
  %indvars.iv = phi i64 [ 0, %.lr.ph ], [ %indvars.iv.next, %30 ]
  %11 = load ptr, ptr %7, align 8, !tbaa !224
  %12 = getelementptr inbounds nuw ptr, ptr %11, i64 %indvars.iv
  %13 = load ptr, ptr %12, align 8, !tbaa !165
  %14 = getelementptr i8, ptr %13, i64 64
  %.val = load i32, ptr %14, align 8, !tbaa !49
  %15 = call fastcc ptr @commit_graph_data_at(i32 %.val)
  %16 = getelementptr inbounds nuw i8, ptr %15, i64 8
  %17 = load i64, ptr %16, align 8, !tbaa !63
  %18 = getelementptr inbounds nuw i8, ptr %13, i64 40
  %19 = load i64, ptr %18, align 8, !tbaa !139
  %20 = sub i64 %17, %19
  %21 = load ptr, ptr %8, align 8, !tbaa !203
  %22 = load i64, ptr %9, align 8, !tbaa !303
  %23 = add i64 %22, 1
  store i64 %23, ptr %9, align 8, !tbaa !303
  call void @display_progress(ptr noundef %21, i64 noundef %23) #24
  %24 = icmp ugt i64 %20, 2147483647
  br i1 %24, label %hashwrite_be32.exit, label %30

hashwrite_be32.exit:                              ; preds = %10
  call void @llvm.lifetime.start.p0(i64 4, ptr nonnull %4)
  %25 = lshr i64 %20, 32
  %26 = trunc nuw i64 %25 to i32
  %27 = call i32 asm "bswap $0", "=r,0,~{dirflag},~{fpsr},~{flags}"(i32 %26) #26, !srcloc !96
  store i32 %27, ptr %4, align 4, !tbaa !47
  call void @hashwrite(ptr noundef %0, ptr noundef nonnull %4, i32 noundef 4) #24
  call void @llvm.lifetime.end.p0(i64 4, ptr nonnull %4)
  call void @llvm.lifetime.start.p0(i64 4, ptr nonnull %3)
  %28 = trunc i64 %20 to i32
  %29 = call i32 asm "bswap $0", "=r,0,~{dirflag},~{fpsr},~{flags}"(i32 %28) #26, !srcloc !96
  store i32 %29, ptr %3, align 4, !tbaa !47
  call void @hashwrite(ptr noundef %0, ptr noundef nonnull %3, i32 noundef 4) #24
  call void @llvm.lifetime.end.p0(i64 4, ptr nonnull %3)
  br label %30

30:                                               ; preds = %hashwrite_be32.exit, %10
  %indvars.iv.next = add nuw nsw i64 %indvars.iv, 1
  %31 = load i64, ptr %5, align 8, !tbaa !222
  %32 = icmp ugt i64 %31, %indvars.iv.next
  br i1 %32, label %10, label %._crit_edge, !llvm.loop !311

._crit_edge:                                      ; preds = %30, %2
  ret i32 0
}